; Function Attrs: mustprogress nounwind uwtable
define hidden void @_ZN4llvh19raw_svector_ostream10write_implEPKcm(ptr nocapture noundef nonnull readonly align 8 dereferenceable(48) %this, ptr nocapture noundef readonly %Ptr, i64 noundef %Size) unnamed_addr #0 align 2 {
entry:
  %OS = getelementptr inbounds i8, ptr %this, i64 40
  %0 = load ptr, ptr %OS, align 8
  %Capacity.i.i = getelementptr inbounds i8, ptr %0, i64 12
  %1 = load i32, ptr %Capacity.i.i, align 4
  %conv.i.i = zext i32 %1 to i64
  %Size.i.i = getelementptr inbounds i8, ptr %0, i64 8
  %2 = load i32, ptr %Size.i.i, align 8
  %conv.i5.i = zext i32 %2 to i64
  %sub.i = sub nsw i64 %conv.i.i, %conv.i5.i
  %cmp.i = icmp ult i64 %sub.i, %Size
  br i1 %cmp.i, label %if.end.i.thread, label %if.end.i

if.end.i.thread:                                  ; preds = %entry
  %add.i = add i64 %conv.i5.i, %Size
  %add.ptr.i.i.i.i = getelementptr inbounds i8, ptr %0, i64 16
  tail call void @_ZN4llvh15SmallVectorBase8grow_podEPvmm(ptr noundef nonnull align 8 dereferenceable(16) %0, ptr noundef nonnull %add.ptr.i.i.i.i, i64 noundef %add.i, i64 noundef 1) #26
  %.pre13.pre.i = load i32, ptr %Size.i.i, align 8
  br label %if.then.i.i

if.end.i:                                         ; preds = %entry
  %cmp.not.i.i = icmp eq i64 %Size, 0
  br i1 %cmp.not.i.i, label %_ZN4llvh15SmallVectorImplIcE6appendIPKcvEEvT_S5_.exit, label %if.then.i.i

if.then.i.i:                                      ; preds = %if.end.i.thread, %if.end.i
  %.pre13.i4 = phi i32 [ %.pre13.pre.i, %if.end.i.thread ], [ %2, %if.end.i ]
  %3 = load ptr, ptr %0, align 8
  %conv.i9.i = zext i32 %.pre13.i4 to i64
  %add.ptr.i.i = getelementptr inbounds i8, ptr %3, i64 %conv.i9.i
  tail call void @llvm.memcpy.p0.p0.i64(ptr align 1 %add.ptr.i.i, ptr align 1 %Ptr, i64 %Size, i1 false)
  %.pre.i = load i32, ptr %Size.i.i, align 8
  br label %_ZN4llvh15SmallVectorImplIcE6appendIPKcvEEvT_S5_.exit

_ZN4llvh15SmallVectorImplIcE6appendIPKcvEEvT_S5_.exit: ; preds = %if.end.i, %if.then.i.i
  %4 = phi i32 [ %2, %if.end.i ], [ %.pre.i, %if.then.i.i ]
  %5 = trunc i64 %Size to i32
  %conv.i12.i = add i32 %4, %5
  store i32 %conv.i12.i, ptr %Size.i.i, align 8
  ret void
}